target datalayout = "e-m:e-p270:32:32-p271:32:32-p272:64:64-i64:64-i128:128-f80:128-n8:16:32:64-S128"
target triple = "x86_64-pc-linux-gnu"

%class.JvmtiTagMapKey = type { %class.WeakHandle, ptr }
%class.WeakHandle = type { ptr }
%class.JvmtiTagMapTable = type { %class.ResizeableResourceHashtable }
%class.ResizeableResourceHashtable = type { %class.ResourceHashtableBase.base, i32 }
%class.ResourceHashtableBase.base = type <{ %class.ResizeableResourceHashtableStorage, i32 }>
%class.ResizeableResourceHashtableStorage = type { i32, ptr }
%class.ResourceHashtableNode = type { i32, %class.JvmtiTagMapKey, i64, ptr }
%class.ResourceHashtableBase = type <{ %class.ResizeableResourceHashtableStorage, i32, [4 x i8] }>
%class.anon.34 = type { ptr }

; Function Attrs: mustprogress nounwind uwtable
define linkonce_odr hidden noundef i32 @_ZNK34ResizeableResourceHashtableStorageI14JvmtiTagMapKeylLN6AnyObj15allocation_typeE2EL8MEMFLAGS23EE10table_sizeEv(ptr noundef nonnull align 8 dereferenceable(16) %0) #1 comdat align 2 {
  %2 = alloca ptr, align 8
  store ptr %0, ptr %2, align 8
  %3 = load ptr, ptr %2, align 8
  %4 = getelementptr inbounds %class.ResizeableResourceHashtableStorage, ptr %3, i32 0, i32 0
  %5 = load i32, ptr %4, align 8
  ret i32 %5
}

; Function Attrs: mustprogress nounwind uwtable
define linkonce_odr hidden noundef ptr @_ZNK34ResizeableResourceHashtableStorageI14JvmtiTagMapKeylLN6AnyObj15allocation_typeE2EL8MEMFLAGS23EE5tableEv(ptr noundef nonnull align 8 dereferenceable(16) %0) #1 comdat align 2 {
  %2 = alloca ptr, align 8
  store ptr %0, ptr %2, align 8
  %3 = load ptr, ptr %2, align 8
  %4 = getelementptr inbounds %class.ResizeableResourceHashtableStorage, ptr %3, i32 0, i32 1
  %5 = load ptr, ptr %4, align 8
  ret ptr %5
}

; Function Attrs: mustprogress nounwind uwtable
define linkonce_odr hidden noundef zeroext i1 @_ZZNK21ResourceHashtableBaseI34ResizeableResourceHashtableStorageI14JvmtiTagMapKeylLN6AnyObj15allocation_typeE2EL8MEMFLAGS23EES1_lLS3_2ELS4_23EXadL_ZNS1_8get_hashERKS1_EEXadL_ZNS1_6equalsES7_S7_EEE7iterateI21JvmtiTagMapKeyClosureEEvPT_ENKUlRS1_RlE_clESD_SE_(ptr noundef nonnull align 8 dereferenceable(8) %0, ptr noundef nonnull align 8 dereferenceable(16) %1, ptr noundef nonnull align 8 dereferenceable(8) %2) #1 comdat align 2 {
  %4 = alloca ptr, align 8
  %5 = alloca ptr, align 8
  %6 = alloca ptr, align 8
  store ptr %0, ptr %4, align 8
  store ptr %1, ptr %5, align 8
  store ptr %2, ptr %6, align 8
  %7 = load ptr, ptr %4, align 8
  %8 = getelementptr inbounds %class.anon.34, ptr %7, i32 0, i32 0
  %9 = load ptr, ptr %8, align 8
  %10 = load ptr, ptr %9, align 8
  %11 = load ptr, ptr %5, align 8
  %12 = load ptr, ptr %6, align 8
  %13 = load ptr, ptr %10, align 8
  %14 = getelementptr inbounds ptr, ptr %13, i64 0
  %15 = load ptr, ptr %14, align 8
  %16 = call noundef zeroext i1 %15(ptr noundef nonnull align 8 dereferenceable(8) %10, ptr noundef nonnull align 8 dereferenceable(16) %11, ptr noundef nonnull align 8 dereferenceable(8) %12)
  ret i1 %16
}

; Function Attrs: mustprogress nounwind uwtable
define linkonce_odr hidden noundef ptr @_ZNK21ResourceHashtableBaseI34ResizeableResourceHashtableStorageI14JvmtiTagMapKeylLN6AnyObj15allocation_typeE2EL8MEMFLAGS23EES1_lLS3_2ELS4_23EXadL_ZNS1_8get_hashERKS1_EEXadL_ZNS1_6equalsES7_S7_EEE9bucket_atEj(ptr noundef nonnull align 8 dereferenceable(20) %0, i32 noundef %1) #1 comdat align 2 {
  %3 = alloca ptr, align 8
  %4 = alloca i32, align 4
  %5 = alloca ptr, align 8
  store ptr %0, ptr %3, align 8
  store i32 %1, ptr %4, align 4
  %6 = load ptr, ptr %3, align 8
  %7 = call noundef ptr @_ZNK21ResourceHashtableBaseI34ResizeableResourceHashtableStorageI14JvmtiTagMapKeylLN6AnyObj15allocation_typeE2EL8MEMFLAGS23EES1_lLS3_2ELS4_23EXadL_ZNS1_8get_hashERKS1_EEXadL_ZNS1_6equalsES7_S7_EEE5tableEv(ptr noundef nonnull align 8 dereferenceable(20) %6)
  store ptr %7, ptr %5, align 8
  %8 = load ptr, ptr %5, align 8
  %9 = load i32, ptr %4, align 4
  %10 = zext i32 %9 to i64
  %11 = getelementptr inbounds ptr, ptr %8, i64 %10
  ret ptr %11
}

; Function Attrs: mustprogress nounwind uwtable
define linkonce_odr hidden noundef i32 @_ZNK21ResourceHashtableBaseI34ResizeableResourceHashtableStorageI14JvmtiTagMapKeylLN6AnyObj15allocation_typeE2EL8MEMFLAGS23EES1_lLS3_2ELS4_23EXadL_ZNS1_8get_hashERKS1_EEXadL_ZNS1_6equalsES7_S7_EEE10table_sizeEv(ptr noundef nonnull align 8 dereferenceable(20) %0) #1 comdat align 2 {
  %2 = alloca ptr, align 8
  store ptr %0, ptr %2, align 8
  %3 = load ptr, ptr %2, align 8
  %4 = call noundef i32 @_ZNK34ResizeableResourceHashtableStorageI14JvmtiTagMapKeylLN6AnyObj15allocation_typeE2EL8MEMFLAGS23EE10table_sizeEv(ptr noundef nonnull align 8 dereferenceable(16) %3)
  ret i32 %4
}

; Function Attrs: mustprogress nounwind uwtable
define linkonce_odr hidden noundef ptr @_ZNK21ResourceHashtableBaseI34ResizeableResourceHashtableStorageI14JvmtiTagMapKeylLN6AnyObj15allocation_typeE2EL8MEMFLAGS23EES1_lLS3_2ELS4_23EXadL_ZNS1_8get_hashERKS1_EEXadL_ZNS1_6equalsES7_S7_EEE5tableEv(ptr noundef nonnull align 8 dereferenceable(20) %0) #1 comdat align 2 {
  %2 = alloca ptr, align 8
  store ptr %0, ptr %2, align 8
  %3 = load ptr, ptr %2, align 8
  %4 = call noundef ptr @_ZNK34ResizeableResourceHashtableStorageI14JvmtiTagMapKeylLN6AnyObj15allocation_typeE2EL8MEMFLAGS23EE5tableEv(ptr noundef nonnull align 8 dereferenceable(16) %3)
  ret ptr %4
}

; Function Attrs: mustprogress nounwind uwtable
define linkonce_odr hidden void @_ZNK21ResourceHashtableBaseI34ResizeableResourceHashtableStorageI14JvmtiTagMapKeylLN6AnyObj15allocation_typeE2EL8MEMFLAGS23EES1_lLS3_2ELS4_23EXadL_ZNS1_8get_hashERKS1_EEXadL_ZNS1_6equalsES7_S7_EEE7iterateIZNKS8_7iterateI21JvmtiTagMapKeyClosureEEvPT_EUlRS1_RlE_EEvSC_(ptr noundef nonnull align 8 dereferenceable(20) %0, ptr %1) #1 comdat align 2 {
  %3 = alloca %class.anon.34, align 8
  %4 = alloca ptr, align 8
  %5 = alloca ptr, align 8
  %6 = alloca i32, align 4
  %7 = alloca i32, align 4
  %8 = alloca ptr, align 8
  %9 = alloca i8, align 1
  %10 = getelementptr inbounds %class.anon.34, ptr %3, i32 0, i32 0
  store ptr %1, ptr %10, align 8
  store ptr %0, ptr %4, align 8
  %11 = load ptr, ptr %4, align 8
  %12 = call noundef ptr @_ZNK21ResourceHashtableBaseI34ResizeableResourceHashtableStorageI14JvmtiTagMapKeylLN6AnyObj15allocation_typeE2EL8MEMFLAGS23EES1_lLS3_2ELS4_23EXadL_ZNS1_8get_hashERKS1_EEXadL_ZNS1_6equalsES7_S7_EEE5tableEv(ptr noundef nonnull align 8 dereferenceable(20) %11)
  store ptr %12, ptr %5, align 8
  %13 = call noundef i32 @_ZNK21ResourceHashtableBaseI34ResizeableResourceHashtableStorageI14JvmtiTagMapKeylLN6AnyObj15allocation_typeE2EL8MEMFLAGS23EES1_lLS3_2ELS4_23EXadL_ZNS1_8get_hashERKS1_EEXadL_ZNS1_6equalsES7_S7_EEE10table_sizeEv(ptr noundef nonnull align 8 dereferenceable(20) %11)
  store i32 %13, ptr %6, align 4
  %14 = getelementptr inbounds %class.ResourceHashtableBase, ptr %11, i32 0, i32 1
  %15 = load i32, ptr %14, align 8
  store i32 %15, ptr %7, align 4
  br label %16

16:                                               ; preds = %48, %2
  %17 = load i32, ptr %7, align 4
  %18 = icmp sgt i32 %17, 0
  br i1 %18, label %19, label %24

19:                                               ; preds = %16
  %20 = load ptr, ptr %5, align 8
  %21 = load i32, ptr %6, align 4
  %22 = call noundef ptr @_ZNK21ResourceHashtableBaseI34ResizeableResourceHashtableStorageI14JvmtiTagMapKeylLN6AnyObj15allocation_typeE2EL8MEMFLAGS23EES1_lLS3_2ELS4_23EXadL_ZNS1_8get_hashERKS1_EEXadL_ZNS1_6equalsES7_S7_EEE9bucket_atEj(ptr noundef nonnull align 8 dereferenceable(20) %11, i32 noundef %21)
  %23 = icmp ult ptr %20, %22
  br label %24

24:                                               ; preds = %19, %16
  %25 = phi i1 [ false, %16 ], [ %23, %19 ]
  br i1 %25, label %26, label %51

26:                                               ; preds = %24
  %27 = load ptr, ptr %5, align 8
  %28 = load ptr, ptr %27, align 8
  store ptr %28, ptr %8, align 8
  br label %29

29:                                               ; preds = %42, %26
  %30 = load ptr, ptr %8, align 8
  %31 = icmp ne ptr %30, null
  br i1 %31, label %32, label %48

32:                                               ; preds = %29
  %33 = load ptr, ptr %8, align 8
  %34 = getelementptr inbounds %class.ResourceHashtableNode, ptr %33, i32 0, i32 1
  %35 = load ptr, ptr %8, align 8
  %36 = getelementptr inbounds %class.ResourceHashtableNode, ptr %35, i32 0, i32 2
  %37 = call noundef zeroext i1 @_ZZNK21ResourceHashtableBaseI34ResizeableResourceHashtableStorageI14JvmtiTagMapKeylLN6AnyObj15allocation_typeE2EL8MEMFLAGS23EES1_lLS3_2ELS4_23EXadL_ZNS1_8get_hashERKS1_EEXadL_ZNS1_6equalsES7_S7_EEE7iterateI21JvmtiTagMapKeyClosureEEvPT_ENKUlRS1_RlE_clESD_SE_(ptr noundef nonnull align 8 dereferenceable(8) %3, ptr noundef nonnull align 8 dereferenceable(16) %34, ptr noundef nonnull align 8 dereferenceable(8) %36)
  %38 = zext i1 %37 to i8
  store i8 %38, ptr %9, align 1
  %39 = load i8, ptr %9, align 1
  %40 = trunc i8 %39 to i1
  br i1 %40, label %42, label %41

41:                                               ; preds = %32
  br label %51

42:                                               ; preds = %32
  %43 = load ptr, ptr %8, align 8
  %44 = getelementptr inbounds %class.ResourceHashtableNode, ptr %43, i32 0, i32 3
  %45 = load ptr, ptr %44, align 8
  store ptr %45, ptr %8, align 8
  %46 = load i32, ptr %7, align 4
  %47 = add nsw i32 %46, -1
  store i32 %47, ptr %7, align 4
  br label %29, !llvm.loop !22

48:                                               ; preds = %29
  %49 = load ptr, ptr %5, align 8
  %50 = getelementptr inbounds ptr, ptr %49, i32 1
  store ptr %50, ptr %5, align 8
  br label %16, !llvm.loop !23

51:                                               ; preds = %41, %24
  ret void
}

; Function Attrs: mustprogress nounwind uwtable
define linkonce_odr hidden void @_ZNK21ResourceHashtableBaseI34ResizeableResourceHashtableStorageI14JvmtiTagMapKeylLN6AnyObj15allocation_typeE2EL8MEMFLAGS23EES1_lLS3_2ELS4_23EXadL_ZNS1_8get_hashERKS1_EEXadL_ZNS1_6equalsES7_S7_EEE7iterateI21JvmtiTagMapKeyClosureEEvPT_(ptr noundef nonnull align 8 dereferenceable(20) %0, ptr noundef %1) #1 comdat align 2 {
  %3 = alloca ptr, align 8
  %4 = alloca ptr, align 8
  %5 = alloca %class.anon.34, align 8
  %6 = alloca %class.anon.34, align 8
  store ptr %0, ptr %3, align 8
  store ptr %1, ptr %4, align 8
  %7 = load ptr, ptr %3, align 8
  %8 = getelementptr inbounds %class.anon.34, ptr %5, i32 0, i32 0
  store ptr %4, ptr %8, align 8
  call void @llvm.memcpy.p0.p0.i64(ptr align 8 %6, ptr align 8 %5, i64 8, i1 false)
  %9 = getelementptr inbounds %class.anon.34, ptr %6, i32 0, i32 0
  %10 = load ptr, ptr %9, align 8
  call void @_ZNK21ResourceHashtableBaseI34ResizeableResourceHashtableStorageI14JvmtiTagMapKeylLN6AnyObj15allocation_typeE2EL8MEMFLAGS23EES1_lLS3_2ELS4_23EXadL_ZNS1_8get_hashERKS1_EEXadL_ZNS1_6equalsES7_S7_EEE7iterateIZNKS8_7iterateI21JvmtiTagMapKeyClosureEEvPT_EUlRS1_RlE_EEvSC_(ptr noundef nonnull align 8 dereferenceable(20) %7, ptr %10)
  ret void
}

; Function Attrs: mustprogress nounwind uwtable
define hidden void @_ZN16JvmtiTagMapTable13entry_iterateEP21JvmtiTagMapKeyClosure(ptr noundef nonnull align 8 dereferenceable(24) %0, ptr noundef %1) #1 align 2 {
  %3 = alloca ptr, align 8
  %4 = alloca ptr, align 8
  store ptr %0, ptr %3, align 8
  store ptr %1, ptr %4, align 8
  %5 = load ptr, ptr %3, align 8
  %6 = getelementptr inbounds %class.JvmtiTagMapTable, ptr %5, i32 0, i32 0
  %7 = load ptr, ptr %4, align 8
  call void @_ZNK21ResourceHashtableBaseI34ResizeableResourceHashtableStorageI14JvmtiTagMapKeylLN6AnyObj15allocation_typeE2EL8MEMFLAGS23EES1_lLS3_2ELS4_23EXadL_ZNS1_8get_hashERKS1_EEXadL_ZNS1_6equalsES7_S7_EEE7iterateI21JvmtiTagMapKeyClosureEEvPT_(ptr noundef nonnull align 8 dereferenceable(20) %6, ptr noundef %7)
  ret void
}