; Function Attrs: mustprogress nounwind uwtable
define hidden void @_ZN16JvmtiTagMapTable13entry_iterateEP21JvmtiTagMapKeyClosure(ptr nocapture noundef nonnull readonly align 8 dereferenceable(24) %0, ptr noundef %1) local_unnamed_addr #1 align 2 {
  %3 = getelementptr inbounds i8, ptr %0, i64 8
  %4 = load i32, ptr %0, align 8
  %5 = getelementptr inbounds i8, ptr %0, i64 16
  %6 = load i32, ptr %5, align 8
  %7 = zext i32 %4 to i64
  %8 = icmp sgt i32 %6, 0
  %9 = icmp ne i32 %4, 0
  %or.cond22.i.i = select i1 %8, i1 %9, i1 false
  br i1 %or.cond22.i.i, label %.preheader.preheader.i.i, label %_ZNK21ResourceHashtableBaseI34ResizeableResourceHashtableStorageI14JvmtiTagMapKeylLN6AnyObj15allocation_typeE2EL8MEMFLAGS23EES1_lLS3_2ELS4_23EXadL_ZNS1_8get_hashERKS1_EEXadL_ZNS1_6equalsES7_S7_EEE7iterateI21JvmtiTagMapKeyClosureEEvPT_.exit

.preheader.preheader.i.i:                         ; preds = %2
  %10 = load ptr, ptr %3, align 8
  br label %.preheader.i.i

.preheader.i.i:                                   ; preds = %._crit_edge.i.i, %.preheader.preheader.i.i
  %11 = phi ptr [ %20, %._crit_edge.i.i ], [ %10, %.preheader.preheader.i.i ]
  %.024.i.i = phi ptr [ %21, %._crit_edge.i.i ], [ %10, %.preheader.preheader.i.i ]
  %.01223.i.i = phi i32 [ %.1.lcssa.i.i, %._crit_edge.i.i ], [ %6, %.preheader.preheader.i.i ]
  %.01118.i.i = load ptr, ptr %.024.i.i, align 8
  %.not19.i.i = icmp eq ptr %.01118.i.i, null
  br i1 %.not19.i.i, label %._crit_edge.i.i, label %.lr.ph.i.i

.lr.ph.i.i:                                       ; preds = %.preheader.i.i, %17
  %.01121.i.i = phi ptr [ %.011.i.i, %17 ], [ %.01118.i.i, %.preheader.i.i ]
  %.120.i.i = phi i32 [ %19, %17 ], [ %.01223.i.i, %.preheader.i.i ]
  %12 = getelementptr inbounds i8, ptr %.01121.i.i, i64 8
  %13 = getelementptr inbounds i8, ptr %.01121.i.i, i64 24
  %14 = load ptr, ptr %1, align 8
  %15 = load ptr, ptr %14, align 8
  %16 = tail call noundef zeroext i1 %15(ptr noundef nonnull align 8 dereferenceable(8) %1, ptr noundef nonnull align 8 dereferenceable(16) %12, ptr noundef nonnull align 8 dereferenceable(8) %13) #11
  br i1 %16, label %17, label %_ZNK21ResourceHashtableBaseI34ResizeableResourceHashtableStorageI14JvmtiTagMapKeylLN6AnyObj15allocation_typeE2EL8MEMFLAGS23EES1_lLS3_2ELS4_23EXadL_ZNS1_8get_hashERKS1_EEXadL_ZNS1_6equalsES7_S7_EEE7iterateI21JvmtiTagMapKeyClosureEEvPT_.exit

17:                                               ; preds = %.lr.ph.i.i
  %18 = getelementptr inbounds i8, ptr %.01121.i.i, i64 32
  %19 = add nsw i32 %.120.i.i, -1
  %.011.i.i = load ptr, ptr %18, align 8
  %.not.i.i = icmp eq ptr %.011.i.i, null
  br i1 %.not.i.i, label %._crit_edge.loopexit.i.i, label %.lr.ph.i.i, !llvm.loop !16

._crit_edge.loopexit.i.i:                         ; preds = %17
  %.pre.i.i = load ptr, ptr %3, align 8
  br label %._crit_edge.i.i

._crit_edge.i.i:                                  ; preds = %._crit_edge.loopexit.i.i, %.preheader.i.i
  %20 = phi ptr [ %11, %.preheader.i.i ], [ %.pre.i.i, %._crit_edge.loopexit.i.i ]
  %.1.lcssa.i.i = phi i32 [ %.01223.i.i, %.preheader.i.i ], [ %19, %._crit_edge.loopexit.i.i ]
  %21 = getelementptr inbounds i8, ptr %.024.i.i, i64 8
  %22 = icmp sgt i32 %.1.lcssa.i.i, 0
  %23 = getelementptr inbounds ptr, ptr %20, i64 %7
  %24 = icmp ult ptr %21, %23
  %or.cond.i.i = select i1 %22, i1 %24, i1 false
  br i1 %or.cond.i.i, label %.preheader.i.i, label %_ZNK21ResourceHashtableBaseI34ResizeableResourceHashtableStorageI14JvmtiTagMapKeylLN6AnyObj15allocation_typeE2EL8MEMFLAGS23EES1_lLS3_2ELS4_23EXadL_ZNS1_8get_hashERKS1_EEXadL_ZNS1_6equalsES7_S7_EEE7iterateI21JvmtiTagMapKeyClosureEEvPT_.exit, !llvm.loop !17

_ZNK21ResourceHashtableBaseI34ResizeableResourceHashtableStorageI14JvmtiTagMapKeylLN6AnyObj15allocation_typeE2EL8MEMFLAGS23EES1_lLS3_2ELS4_23EXadL_ZNS1_8get_hashERKS1_EEXadL_ZNS1_6equalsES7_S7_EEE7iterateI21JvmtiTagMapKeyClosureEEvPT_.exit: ; preds = %._crit_edge.i.i, %.lr.ph.i.i, %2
  ret void
}